; Function Attrs: mustprogress uwtable
define void @_ZN32pxrInternal_v0_24__pxrReserved__30UsdImagingDataSourceVisibilityC2ERKNS_17UsdAttributeQueryERKNS_7SdfPathERKNS_32UsdImagingDataSourceStageGlobalsE(ptr noundef nonnull align 8 dereferenceable(136) initializes((0, 8)) %0, ptr noundef nonnull align 8 dereferenceable(120) %1, ptr noundef nonnull align 4 dereferenceable(8) %2, ptr noundef nonnull align 8 dereferenceable(8) %3) unnamed_addr #0 align 2 personality ptr @__gxx_personality_v0 {
  store ptr getelementptr inbounds nuw inrange(-16, 32) (i8, ptr @_ZTVN32pxrInternal_v0_24__pxrReserved__30UsdImagingDataSourceVisibilityE, i64 16), ptr %0, align 8
  %5 = getelementptr inbounds nuw i8, ptr %0, i64 8
  invoke void @_ZN32pxrInternal_v0_24__pxrReserved__17UsdAttributeQueryC1ERKS0_(ptr noundef nonnull align 8 dereferenceable(120) %5, ptr noundef nonnull align 8 dereferenceable(120) %1)
          to label %6 unwind label %17

6:                                                ; preds = %4
  %7 = getelementptr inbounds nuw i8, ptr %0, i64 128
  store ptr %3, ptr %7, align 8
  %8 = invoke noundef zeroext i1 @_ZNK32pxrInternal_v0_24__pxrReserved__17UsdAttributeQuery23ValueMightBeTimeVaryingEv(ptr noundef nonnull align 8 dereferenceable(120) %5)
          to label %9 unwind label %19

9:                                                ; preds = %6
  br i1 %8, label %10, label %21

10:                                               ; preds = %9
  %11 = load ptr, ptr %7, align 8
  %12 = invoke noundef nonnull align 8 dereferenceable(56) ptr @_ZN32pxrInternal_v0_24__pxrReserved__18HdVisibilitySchema17GetDefaultLocatorEv()
          to label %13 unwind label %19

13:                                               ; preds = %10
  %14 = load ptr, ptr %11, align 8
  %15 = getelementptr inbounds nuw i8, ptr %14, i64 24
  %16 = load ptr, ptr %15, align 8
  invoke void %16(ptr noundef nonnull align 8 dereferenceable(8) %11, ptr noundef nonnull align 4 dereferenceable(8) %2, ptr noundef nonnull align 8 dereferenceable(56) %12)
          to label %21 unwind label %19

17:                                               ; preds = %4
  %18 = landingpad { ptr, i32 }
          cleanup
  br label %22

19:                                               ; preds = %13, %10, %6
  %20 = landingpad { ptr, i32 }
          cleanup
  tail call void @_ZN32pxrInternal_v0_24__pxrReserved__17UsdAttributeQueryD2Ev(ptr noundef nonnull align 8 dereferenceable(120) %5) #23
  br label %22

21:                                               ; preds = %13, %9
  ret void

22:                                               ; preds = %19, %17
  %.pn = phi { ptr, i32 } [ %20, %19 ], [ %18, %17 ]
  tail call void @_ZN32pxrInternal_v0_24__pxrReserved__16HdDataSourceBaseD2Ev(ptr noundef nonnull align 8 dereferenceable(8) %0) #23
  resume { ptr, i32 } %.pn
}